target datalayout = "e-m:e-p270:32:32-p271:32:32-p272:64:64-i64:64-i128:128-f80:128-n8:16:32:64-S128"
target triple = "x86_64-pc-linux-gnu"

%"class.nanogui::Texture" = type { %"class.nanogui::Object.base", i8, i8, i8, i8, i8, i8, i8, %"struct.nanogui::Array", i8, i32, i32 }
%"class.nanogui::Object.base" = type <{ ptr, %"struct.std::atomic" }>
%"struct.std::atomic" = type { %"struct.std::__atomic_base" }
%"struct.std::__atomic_base" = type { i32 }
%"struct.nanogui::Array" = type { [2 x i32] }

@_ZTISt13runtime_error = external constant ptr
@.str.5 = private unnamed_addr constant [43 x i8] c"Texture::channels(): invalid pixel format!\00", align 1

; Function Attrs: mustprogress uwtable
define hidden noundef i64 @_ZNK7nanogui7Texture8channelsEv(ptr noundef nonnull align 8 dereferenceable(40) %0) #0 align 2 personality ptr @__gxx_personality_v0 {
  %2 = alloca ptr, align 8
  %3 = alloca i64, align 8
  %4 = alloca ptr, align 8
  %5 = alloca i32, align 4
  store ptr %0, ptr %2, align 8
  %6 = load ptr, ptr %2, align 8
  store i64 1, ptr %3, align 8
  %7 = getelementptr inbounds %"class.nanogui::Texture", ptr %6, i32 0, i32 1
  %8 = load i8, ptr %7, align 4
  switch i8 %8, label %17 [
    i8 0, label %9
    i8 1, label %10
    i8 2, label %11
    i8 3, label %12
    i8 4, label %13
    i8 5, label %14
    i8 6, label %15
    i8 7, label %16
  ]

9:                                                ; preds = %1
  store i64 1, ptr %3, align 8
  br label %24

10:                                               ; preds = %1
  store i64 2, ptr %3, align 8
  br label %24

11:                                               ; preds = %1
  store i64 3, ptr %3, align 8
  br label %24

12:                                               ; preds = %1
  store i64 4, ptr %3, align 8
  br label %24

13:                                               ; preds = %1
  store i64 3, ptr %3, align 8
  br label %24

14:                                               ; preds = %1
  store i64 4, ptr %3, align 8
  br label %24

15:                                               ; preds = %1
  store i64 1, ptr %3, align 8
  br label %24

16:                                               ; preds = %1
  store i64 2, ptr %3, align 8
  br label %24

17:                                               ; preds = %1
  %18 = call ptr @__cxa_allocate_exception(i64 16) #6
  invoke void @_ZNSt13runtime_errorC1EPKc(ptr noundef nonnull align 8 dereferenceable(16) %18, ptr noundef @.str.5)
          to label %19 unwind label %20

19:                                               ; preds = %17
  call void @__cxa_throw(ptr %18, ptr @_ZTISt13runtime_error, ptr @_ZNSt13runtime_errorD1Ev) #7
  unreachable

20:                                               ; preds = %17
  %21 = landingpad { ptr, i32 }
          cleanup
  %22 = extractvalue { ptr, i32 } %21, 0
  store ptr %22, ptr %4, align 8
  %23 = extractvalue { ptr, i32 } %21, 1
  store i32 %23, ptr %5, align 4
  call void @__cxa_free_exception(ptr %18) #6
  br label %26

24:                                               ; preds = %16, %15, %14, %13, %12, %11, %10, %9
  %25 = load i64, ptr %3, align 8
  ret i64 %25

26:                                               ; preds = %20
  %27 = load ptr, ptr %4, align 8
  %28 = load i32, ptr %5, align 4
  %29 = insertvalue { ptr, i32 } poison, ptr %27, 0
  %30 = insertvalue { ptr, i32 } %29, i32 %28, 1
  resume { ptr, i32 } %30
}