; Function Attrs: mustprogress uwtable
define hidden noundef i64 @_ZNK7nanogui7Texture8channelsEv(ptr nocapture noundef nonnull readonly align 8 dereferenceable(40) %0) local_unnamed_addr #0 align 2 personality ptr @__gxx_personality_v0 {
  %2 = getelementptr inbounds i8, ptr %0, i64 12
  %3 = load i8, ptr %2, align 4
  %4 = icmp ult i8 %3, 8
  br i1 %4, label %switch.lookup, label %5

5:                                                ; preds = %1
  %6 = tail call ptr @__cxa_allocate_exception(i64 16) #5
  invoke void @_ZNSt13runtime_errorC1EPKc(ptr noundef nonnull align 8 dereferenceable(16) %6, ptr noundef nonnull @.str.5)
          to label %7 unwind label %8

7:                                                ; preds = %5
  tail call void @__cxa_throw(ptr nonnull %6, ptr nonnull @_ZTISt13runtime_error, ptr nonnull @_ZNSt13runtime_errorD1Ev) #6
  unreachable

8:                                                ; preds = %5
  %9 = landingpad { ptr, i32 }
          cleanup
  tail call void @__cxa_free_exception(ptr %6) #5
  resume { ptr, i32 } %9

switch.lookup:                                    ; preds = %1
  %10 = zext nneg i8 %3 to i64
  %switch.gep = getelementptr inbounds [8 x i64], ptr @switch.table._ZNK7nanogui7Texture8channelsEv, i64 0, i64 %10
  %switch.load = load i64, ptr %switch.gep, align 8
  ret i64 %switch.load
}